target datalayout = "e-m:e-p270:32:32-p271:32:32-p272:64:64-i64:64-i128:128-f80:128-n8:16:32:64-S128"
target triple = "x86_64-pc-linux-gnu"

%class.PendingDescriptor = type { i32, i32, i8, i8, i8, i32, i32 }

; Function Attrs: mustprogress nounwind uwtable
define dso_local void @_ZN17PendingDescriptorC2Eij(ptr noundef nonnull align 4 dereferenceable(20) %0, i32 noundef %1, i32 noundef %2) unnamed_addr #4 align 2 {
  %4 = alloca ptr, align 8
  %5 = alloca i32, align 4
  %6 = alloca i32, align 4
  store ptr %0, ptr %4, align 8, !tbaa !110
  store i32 %1, ptr %5, align 4, !tbaa !15
  store i32 %2, ptr %6, align 4, !tbaa !15
  %7 = load ptr, ptr %4, align 8
  %8 = getelementptr inbounds nuw %class.PendingDescriptor, ptr %7, i32 0, i32 0
  %9 = load i32, ptr %5, align 4, !tbaa !15
  store i32 %9, ptr %8, align 4, !tbaa !112
  %10 = getelementptr inbounds nuw %class.PendingDescriptor, ptr %7, i32 0, i32 1
  %11 = load i32, ptr %6, align 4, !tbaa !15
  store i32 %11, ptr %10, align 4, !tbaa !114
  %12 = getelementptr inbounds nuw %class.PendingDescriptor, ptr %7, i32 0, i32 2
  store i8 0, ptr %12, align 4, !tbaa !115
  %13 = getelementptr inbounds nuw %class.PendingDescriptor, ptr %7, i32 0, i32 3
  store i8 0, ptr %13, align 1, !tbaa !116
  %14 = getelementptr inbounds nuw %class.PendingDescriptor, ptr %7, i32 0, i32 4
  store i8 0, ptr %14, align 2, !tbaa !117
  %15 = getelementptr inbounds nuw %class.PendingDescriptor, ptr %7, i32 0, i32 5
  store i32 0, ptr %15, align 4, !tbaa !118
  %16 = getelementptr inbounds nuw %class.PendingDescriptor, ptr %7, i32 0, i32 6
  store i32 0, ptr %16, align 4, !tbaa !119
  ret void
}