; Function Attrs: mustprogress nofree norecurse nosync nounwind willreturn memory(argmem: write) uwtable
define dso_local void @_ZN17PendingDescriptorC2Eij(ptr noundef nonnull writeonly align 4 captures(none) dereferenceable(20) initializes((0, 11), (12, 20)) %0, i32 noundef %1, i32 noundef %2) unnamed_addr #15 align 2 {
  store i32 %1, ptr %0, align 4, !tbaa !87
  %4 = getelementptr inbounds nuw i8, ptr %0, i64 4
  store i32 %2, ptr %4, align 4, !tbaa !89
  %5 = getelementptr inbounds nuw i8, ptr %0, i64 8
  store i8 0, ptr %5, align 4, !tbaa !90
  %6 = getelementptr inbounds nuw i8, ptr %0, i64 9
  store i8 0, ptr %6, align 1, !tbaa !91
  %7 = getelementptr inbounds nuw i8, ptr %0, i64 10
  store i8 0, ptr %7, align 2, !tbaa !92
  %8 = getelementptr inbounds nuw i8, ptr %0, i64 12
  store i32 0, ptr %8, align 4, !tbaa !93
  %9 = getelementptr inbounds nuw i8, ptr %0, i64 16
  store i32 0, ptr %9, align 4, !tbaa !94
  ret void
}